; Function Attrs: mustprogress nofree norecurse nosync nounwind willreturn memory(read, inaccessiblemem: none) uwtable
define noundef i32 @_ZNK6icu_7716BytesTrieBuilder26indexOfElementWithNextUnitEiiDs(ptr noundef nonnull readonly align 8 captures(none) dereferenceable(56) %0, i32 noundef %1, i32 noundef %2, i16 noundef zeroext %3) unnamed_addr #14 align 2 {
  %5 = zext i16 %3 to i32
  %sext = shl i32 %5, 24
  %6 = ashr exact i32 %sext, 24
  %7 = getelementptr inbounds nuw i8, ptr %0, i64 24
  %8 = load ptr, ptr %7, align 8, !tbaa !30
  %9 = getelementptr inbounds nuw i8, ptr %0, i64 16
  %10 = load ptr, ptr %9, align 8, !tbaa !23
  %11 = load ptr, ptr %10, align 8, !tbaa !3
  %12 = sext i32 %2 to i64
  %invariant.gep = getelementptr i8, ptr %11, i64 %12
  %13 = sext i32 %1 to i64
  br label %14

14:                                               ; preds = %14, %4
  %indvars.iv = phi i64 [ %indvars.iv.next, %14 ], [ %13, %4 ]
  %15 = getelementptr inbounds %"class.icu_77::BytesTrieElement", ptr %8, i64 %indvars.iv
  %16 = load i32, ptr %15, align 4, !tbaa !17
  %.0.p.i.i = tail call i32 @llvm.abs.i32(i32 %16, i1 false)
  %.0.i.i = add nuw i32 %.0.p.i.i, 1
  %17 = zext nneg i32 %.0.i.i to i64
  %gep = getelementptr i8, ptr %invariant.gep, i64 %17
  %18 = load i8, ptr %gep, align 1, !tbaa !20
  %19 = sext i8 %18 to i32
  %20 = icmp eq i32 %6, %19
  %indvars.iv.next = add nsw i64 %indvars.iv, 1
  br i1 %20, label %14, label %21, !llvm.loop !47

21:                                               ; preds = %14
  %22 = trunc nsw i64 %indvars.iv to i32
  ret i32 %22
}